   1               		.file	"asserv.c"
   2               	__SREG__ = 0x3f
   3               	__SP_H__ = 0x3e
   4               	__SP_L__ = 0x3d
   5               	__CCP__  = 0x34
   6               	__tmp_reg__ = 0
   7               	__zero_reg__ = 1
  15               	.Ltext0:
  16               	.global	waitForMoveToFinish
  18               	waitForMoveToFinish:
  19               	.LFB6:
  20               	.LM1:
  21               	.LVL0:
  22               	/* prologue: function */
  23               	/* frame size = 0 */
  24 0000 FC01      		movw r30,r24
  25 0002 AB01      		movw r20,r22
  26               	.LM2:
  27 0004 E081      		ld r30,Z
  28 0006 F0E0      		ldi r31,lo8(0)
  29 0008 EE0F      		lsl r30
  30 000a FF1F      		rol r31
  31               	.LVL1:
  32 000c E050      		subi r30,lo8(-(semaphore))
  33 000e F040      		sbci r31,hi8(-(semaphore))
  34 0010 8081      		ld r24,Z
  35 0012 9181      		ldd r25,Z+1
  36 0014 60E0      		ldi r22,lo8(0)
  37 0016 70E0      		ldi r23,hi8(0)
  38               	.LVL2:
  39 0018 20E0      		ldi r18,lo8(0)
  40 001a 0E94 0000 		call xQueueGenericReceive
  41               	.LVL3:
  42 001e 8130      		cpi r24,lo8(1)
  43 0020 01F0      		breq .L2
  44 0022 22E1      		ldi r18,lo8(4114)
  45 0024 30E1      		ldi r19,hi8(4114)
  46 0026 00C0      		rjmp .L3
  47               	.L2:
  48 0028 20E0      		ldi r18,lo8(0)
  49 002a 30E0      		ldi r19,hi8(0)
  50               	.L3:
  51               	.LM3:
  52 002c C901      		movw r24,r18
  53               	/* epilogue start */
  54 002e 0895      		ret
  55               	.LFE6:
  57               	.global	moveMotor
  59               	moveMotor:
  60               	.LFB5:
  61               	.LM4:
  62               	.LVL4:
  63 0030 0F93      		push r16
  64 0032 1F93      		push r17
  65 0034 CF93      		push r28
  66 0036 DF93      		push r29
  67               	/* prologue: function */
  68               	/* frame size = 0 */
  69 0038 EC01      		movw r28,r24
  70               	.LM5:
  71 003a 8A85      		ldd r24,Y+10
  72               	.LVL5:
  73 003c 8823      		tst r24
  74 003e 01F0      		breq .L6
  75 0040 21E1      		ldi r18,lo8(4113)
  76 0042 30E1      		ldi r19,hi8(4113)
  77               	.LVL6:
  78 0044 00C0      		rjmp .L7
  79               	.LVL7:
  80               	.L6:
  81               	.LM6:
  82 0046 81E0      		ldi r24,lo8(1)
  83 0048 8A87      		std Y+10,r24
  84               	.LM7:
  85 004a 0885      		ldd r16,Y+8
  86 004c 1985      		ldd r17,Y+9
  87 004e 0E94 0000 		call xTaskGetTickCount
  88               	.LVL8:
  89 0052 AC01      		movw r20,r24
  90 0054 C801      		movw r24,r16
  91 0056 60E0      		ldi r22,lo8(0)
  92 0058 20E0      		ldi r18,lo8(0)
  93 005a 30E0      		ldi r19,hi8(0)
  94 005c 0AE0      		ldi r16,lo8(10)
  95 005e 10E0      		ldi r17,hi8(10)
  96 0060 0E94 0000 		call xTimerGenericCommand
  97 0064 8130      		cpi r24,lo8(1)
  98 0066 01F4      		brne .L8
  99 0068 20E0      		ldi r18,lo8(0)
 100 006a 30E0      		ldi r19,hi8(0)
 101 006c 00C0      		rjmp .L7
 102               	.L8:
 103               	.LM8:
 104 006e 1A86      		std Y+10,__zero_reg__
 105 0070 20E1      		ldi r18,lo8(4112)
 106 0072 30E1      		ldi r19,hi8(4112)
 107               	.LVL9:
 108               	.L7:
 109               	.LM9:
 110 0074 C901      		movw r24,r18
 111               	/* epilogue start */
 112 0076 DF91      		pop r29
 113 0078 CF91      		pop r28
 114               	.LVL10:
 115 007a 1F91      		pop r17
 116 007c 0F91      		pop r16
 117 007e 0895      		ret
 118               	.LFE5:
 120               	.global	vCallbackAsserv
 122               	vCallbackAsserv:
 123               	.LFB4:
 124               	.LM10:
 125               	.LVL11:
 126 0080 0F93      		push r16
 127 0082 1F93      		push r17
 128 0084 DF93      		push r29
 129 0086 CF93      		push r28
 130 0088 0F92      		push __tmp_reg__
 131 008a 0F92      		push __tmp_reg__
 132 008c CDB7      		in r28,__SP_L__
 133 008e DEB7      		in r29,__SP_H__
 134               	/* prologue: function */
 135               	/* frame size = 2 */
 136               	.LM11:
 137 0090 0E94 0000 		call pvTimerGetTimerID
 138               	.LVL12:
 139 0094 E82F      		mov r30,r24
 140 0096 8983      		std Y+1,r24
 141               	.LVL13:
 142 0098 9A83      		std Y+2,r25
 143               	.LVL14:
 144               	.LM12:
 145 009a F0E0      		ldi r31,lo8(0)
 146 009c EE0F      		lsl r30
 147 009e FF1F      		rol r31
 148 00a0 E050      		subi r30,lo8(-(AsservList))
 149 00a2 F040      		sbci r31,hi8(-(AsservList))
 150 00a4 0081      		ld r16,Z
 151 00a6 1181      		ldd r17,Z+1
 152               	.LVL15:
 153               	.LM13:
 154 00a8 D801      		movw r26,r16
 155 00aa 1496      		adiw r26,4
 156 00ac ED91      		ld r30,X+
 157 00ae FC91      		ld r31,X
 158 00b0 1597      		sbiw r26,4+1
 159 00b2 1995      		eicall
 160               	.LM14:
 161 00b4 D801      		movw r26,r16
 162 00b6 1696      		adiw r26,6
 163 00b8 ED91      		ld r30,X+
 164 00ba FC91      		ld r31,X
 165 00bc 1797      		sbiw r26,6+1
 166 00be 1995      		eicall
 167               	/* epilogue start */
 168               	.LM15:
 169 00c0 0F90      		pop __tmp_reg__
 170 00c2 0F90      		pop __tmp_reg__
 171 00c4 CF91      		pop r28
 172 00c6 DF91      		pop r29
 173 00c8 1F91      		pop r17
 174 00ca 0F91      		pop r16
 175               	.LVL16:
 176 00cc 0895      		ret
 177               	.LFE4:
 179               		.data
 180               	.LC0:
 181 0000 4153 2575 		.string	"AS%u"
 181      00
 182               		.text
 183               	.global	createNewAsserv
 185               	createNewAsserv:
 186               	.LFB3:
 187               	.LM16:
 188               	.LVL17:
 189 00ce 6F92      		push r6
 190 00d0 7F92      		push r7
 191 00d2 9F92      		push r9
 192 00d4 AF92      		push r10
 193 00d6 BF92      		push r11
 194 00d8 CF92      		push r12
 195 00da DF92      		push r13
 196 00dc EF92      		push r14
 197               	.LVL18:
 198 00de FF92      		push r15
 199 00e0 0F93      		push r16
 200               	.LVL19:
 201 00e2 1F93      		push r17
 202 00e4 DF93      		push r29
 203 00e6 CF93      		push r28
 204 00e8 00D0      		rcall .
 205 00ea 0F92      		push __tmp_reg__
 206 00ec 0F92      		push __tmp_reg__
 207 00ee CDB7      		in r28,__SP_L__
 208 00f0 DEB7      		in r29,__SP_H__
 209               	/* prologue: function */
 210               	/* frame size = 5 */
 211 00f2 B82E      		mov r11,r24
 212 00f4 A62E      		mov r10,r22
 213 00f6 942E      		mov r9,r20
 214 00f8 3901      		movw r6,r18
 215 00fa 6701      		movw r12,r14
 216               	.LVL20:
 217               	.LM17:
 218 00fc 8091 0000 		lds r24,nbAsserv
 219               	.LVL21:
 220 0100 8530      		cpi r24,lo8(5)
 221 0102 00F0      		brlo .L13
 222               	.LVL22:
 223 0104 EE24      		clr r14
 224 0106 FF24      		clr r15
 225               	.LVL23:
 226 0108 00C0      		rjmp .L14
 227               	.LVL24:
 228               	.L13:
 229               	.LBB2:
 230               	.LM18:
 231 010a 8BE0      		ldi r24,lo8(11)
 232 010c 90E0      		ldi r25,hi8(11)
 233 010e 0E94 0000 		call pvPortMalloc
 234 0112 7C01      		movw r14,r24
 235               	.LVL25:
 236               	.LM19:
 237 0114 DC01      		movw r26,r24
 238 0116 1196      		adiw r26,1
 239 0118 BC92      		st X,r11
 240 011a 1197      		sbiw r26,1
 241               	.LM20:
 242 011c 1296      		adiw r26,2
 243 011e AC92      		st X,r10
 244 0120 1297      		sbiw r26,2
 245               	.LM21:
 246 0122 1396      		adiw r26,3
 247 0124 9C92      		st X,r9
 248 0126 1397      		sbiw r26,3
 249               	.LM22:
 250 0128 1596      		adiw r26,4+1
 251 012a 1C93      		st X,r17
 252 012c 0E93      		st -X,r16
 253 012e 1497      		sbiw r26,4
 254               	.LVL26:
 255               	.LM23:
 256 0130 1796      		adiw r26,6+1
 257 0132 DC92      		st X,r13
 258 0134 CE92      		st -X,r12
 259 0136 1697      		sbiw r26,6
 260               	.LM24:
 261 0138 2091 0000 		lds r18,nbAsserv
 262 013c 2C93      		st X,r18
 263               	.LM25:
 264 013e 1A96      		adiw r26,10
 265 0140 1C92      		st X,__zero_reg__
 266               	.LM26:
 267 0142 30E0      		ldi r19,lo8(0)
 268 0144 F901      		movw r30,r18
 269 0146 EE0F      		lsl r30
 270 0148 FF1F      		rol r31
 271 014a E050      		subi r30,lo8(-(AsservList))
 272 014c F040      		sbci r31,hi8(-(AsservList))
 273 014e 9183      		std Z+1,r25
 274 0150 8083      		st Z,r24
 275               	.LM27:
 276 0152 00D0      		rcall .
 277 0154 00D0      		rcall .
 278 0156 EDB7      		in r30,__SP_L__
 279 0158 FEB7      		in r31,__SP_H__
 280 015a 3196      		adiw r30,1
 281 015c 8E01      		movw r16,r28
 282               	.LVL27:
 283 015e 0F5F      		subi r16,lo8(-(1))
 284 0160 1F4F      		sbci r17,hi8(-(1))
 285 0162 ADB7      		in r26,__SP_L__
 286 0164 BEB7      		in r27,__SP_H__
 287 0166 1296      		adiw r26,1+1
 288 0168 1C93      		st X,r17
 289 016a 0E93      		st -X,r16
 290 016c 1197      		sbiw r26,1
 291 016e 80E0      		ldi r24,lo8(.LC0)
 292 0170 90E0      		ldi r25,hi8(.LC0)
 293               	.LVL28:
 294 0172 9383      		std Z+3,r25
 295 0174 8283      		std Z+2,r24
 296 0176 3583      		std Z+5,r19
 297 0178 2483      		std Z+4,r18
 298 017a 0E94 0000 		call usprintf
 299               	.LM28:
 300 017e EDB7      		in r30,__SP_L__
 301 0180 FEB7      		in r31,__SP_H__
 302 0182 3696      		adiw r30,6
 303 0184 0FB6      		in __tmp_reg__,__SREG__
 304 0186 F894      		cli
 305 0188 FEBF      		out __SP_H__,r31
 306 018a 0FBE      		out __SREG__,__tmp_reg__
 307 018c EDBF      		out __SP_L__,r30
 308 018e 2091 0000 		lds r18,nbAsserv
 309 0192 C801      		movw r24,r16
 310 0194 B301      		movw r22,r6
 311 0196 41E0      		ldi r20,lo8(1)
 312 0198 30E0      		ldi r19,lo8(0)
 313 019a 00E0      		ldi r16,lo8(gs(vCallbackAsserv))
 314 019c 10E0      		ldi r17,hi8(gs(vCallbackAsserv))
 315 019e 0E94 0000 		call xTimerCreate
 316 01a2 D701      		movw r26,r14
 317 01a4 1996      		adiw r26,8+1
 318 01a6 9C93      		st X,r25
 319 01a8 8E93      		st -X,r24
 320 01aa 1897      		sbiw r26,8
 321               	.LM29:
 322 01ac 8091 0000 		lds r24,nbAsserv
 323 01b0 082F      		mov r16,r24
 324 01b2 10E0      		ldi r17,lo8(0)
 325 01b4 81E0      		ldi r24,lo8(1)
 326 01b6 60E0      		ldi r22,lo8(0)
 327 01b8 0E94 0000 		call xQueueCreate
 328 01bc 000F      		lsl r16
 329 01be 111F      		rol r17
 330 01c0 0050      		subi r16,lo8(-(semaphore))
 331 01c2 1040      		sbci r17,hi8(-(semaphore))
 332 01c4 F801      		movw r30,r16
 333 01c6 9183      		std Z+1,r25
 334 01c8 8083      		st Z,r24
 335 01ca E091 0000 		lds r30,nbAsserv
 336 01ce F0E0      		ldi r31,lo8(0)
 337 01d0 EE0F      		lsl r30
 338 01d2 FF1F      		rol r31
 339 01d4 E050      		subi r30,lo8(-(semaphore))
 340 01d6 F040      		sbci r31,hi8(-(semaphore))
 341 01d8 8081      		ld r24,Z
 342 01da 9181      		ldd r25,Z+1
 343 01dc 0097      		sbiw r24,0
 344 01de 01F0      		breq .L15
 345 01e0 60E0      		ldi r22,lo8(0)
 346 01e2 70E0      		ldi r23,hi8(0)
 347 01e4 40E0      		ldi r20,lo8(0)
 348 01e6 50E0      		ldi r21,hi8(0)
 349 01e8 20E0      		ldi r18,lo8(0)
 350 01ea 0E94 0000 		call xQueueGenericSend
 351               	.L15:
 352               	.LM30:
 353 01ee 8091 0000 		lds r24,nbAsserv
 354 01f2 8F5F      		subi r24,lo8(-(1))
 355 01f4 8093 0000 		sts nbAsserv,r24
 356               	.LVL29:
 357               	.L14:
 358               	.LBE2:
 359               	.LM31:
 360 01f8 C701      		movw r24,r14
 361               	.LVL30:
 362               	/* epilogue start */
 363 01fa 0F90      		pop __tmp_reg__
 364 01fc 0F90      		pop __tmp_reg__
 365 01fe 0F90      		pop __tmp_reg__
 366 0200 0F90      		pop __tmp_reg__
 367 0202 0F90      		pop __tmp_reg__
 368 0204 CF91      		pop r28
 369 0206 DF91      		pop r29
 370 0208 1F91      		pop r17
 371 020a 0F91      		pop r16
 372 020c FF90      		pop r15
 373 020e EF90      		pop r14
 374 0210 DF90      		pop r13
 375 0212 CF90      		pop r12
 376               	.LVL31:
 377 0214 BF90      		pop r11
 378               	.LVL32:
 379 0216 AF90      		pop r10
 380               	.LVL33:
 381 0218 9F90      		pop r9
 382               	.LVL34:
 383 021a 7F90      		pop r7
 384 021c 6F90      		pop r6
 385               	.LVL35:
 386 021e 0895      		ret
 387               	.LFE3:
 389               		.lcomm nbAsserv,1
 390               		.lcomm AsservList,10
 391               		.lcomm semaphore,10
 440               	.Letext0:
DEFINED SYMBOLS
                            *ABS*:00000000 asserv.c
C:\DOCUME~1\adrian\LOCALS~1\Temp/ccAzcVR3.s:2      *ABS*:0000003f __SREG__
C:\DOCUME~1\adrian\LOCALS~1\Temp/ccAzcVR3.s:3      *ABS*:0000003e __SP_H__
C:\DOCUME~1\adrian\LOCALS~1\Temp/ccAzcVR3.s:4      *ABS*:0000003d __SP_L__
C:\DOCUME~1\adrian\LOCALS~1\Temp/ccAzcVR3.s:5      *ABS*:00000034 __CCP__
C:\DOCUME~1\adrian\LOCALS~1\Temp/ccAzcVR3.s:6      *ABS*:00000000 __tmp_reg__
C:\DOCUME~1\adrian\LOCALS~1\Temp/ccAzcVR3.s:7      *ABS*:00000001 __zero_reg__
C:\DOCUME~1\adrian\LOCALS~1\Temp/ccAzcVR3.s:18     .text:00000000 waitForMoveToFinish
C:\DOCUME~1\adrian\LOCALS~1\Temp/ccAzcVR3.s:390    .bss:0000000b semaphore
C:\DOCUME~1\adrian\LOCALS~1\Temp/ccAzcVR3.s:59     .text:00000030 moveMotor
C:\DOCUME~1\adrian\LOCALS~1\Temp/ccAzcVR3.s:122    .text:00000080 vCallbackAsserv
C:\DOCUME~1\adrian\LOCALS~1\Temp/ccAzcVR3.s:389    .bss:00000001 AsservList
C:\DOCUME~1\adrian\LOCALS~1\Temp/ccAzcVR3.s:185    .text:000000ce createNewAsserv
                             .bss:00000000 nbAsserv

UNDEFINED SYMBOLS
xQueueGenericReceive
xTaskGetTickCount
xTimerGenericCommand
pvTimerGetTimerID
pvPortMalloc
usprintf
xTimerCreate
xQueueCreate
xQueueGenericSend
__do_copy_data
__do_clear_bss
