   1               		.file	"timers.c"
   2               	__SREG__ = 0x3f
   3               	__SP_H__ = 0x3e
   4               	__SP_L__ = 0x3d
   5               	__CCP__  = 0x34
   6               	__tmp_reg__ = 0
   7               	__zero_reg__ = 1
  15               	.Ltext0:
  16               	.global	xTimerIsTimerActive
  18               	xTimerIsTimerActive:
  19               	.LFB14:
  20               	.LM1:
  21               	.LVL0:
  22               	/* prologue: function */
  23               	/* frame size = 0 */
  24 0000 FC01      		movw r30,r24
  25               	.LM2:
  26               	/* #APP */
  27               	 ;  625 "src/FreeRTOS/timers.c" 1
  28 0002 0FB6      		in		__tmp_reg__, __SREG__
  29               	 ;  0 "" 2
  30               	 ;  625 "src/FreeRTOS/timers.c" 1
  31 0004 F894      		cli
  32               	 ;  0 "" 2
  33               	 ;  625 "src/FreeRTOS/timers.c" 1
  34 0006 0F92      		push	__tmp_reg__
  35               	 ;  0 "" 2
  36               	.LM3:
  37               	 ;  632 "src/FreeRTOS/timers.c" 1
  38 0008 0F90      		pop		__tmp_reg__
  39               	 ;  0 "" 2
  40               	 ;  632 "src/FreeRTOS/timers.c" 1
  41 000a 0FBE      		out		__SREG__, __tmp_reg__
  42               	 ;  0 "" 2
  43               	/* #NOAPP */
  44 000c 20E0      		ldi r18,lo8(0)
  45 000e 8285      		ldd r24,Z+10
  46 0010 9385      		ldd r25,Z+11
  47               	.LVL1:
  48 0012 892B      		or r24,r25
  49 0014 01F0      		breq .L2
  50 0016 21E0      		ldi r18,lo8(1)
  51               	.L2:
  52               	.LM4:
  53 0018 822F      		mov r24,r18
  54               	/* epilogue start */
  55 001a 0895      		ret
  56               	.LFE14:
  58               	.global	pvTimerGetTimerID
  60               	pvTimerGetTimerID:
  61               	.LFB15:
  62               	.LM5:
  63               	.LVL2:
  64               	/* prologue: function */
  65               	/* frame size = 0 */
  66 001c FC01      		movw r30,r24
  67               	.LM6:
  68 001e 8785      		ldd r24,Z+15
  69               	.LVL3:
  70 0020 9089      		ldd r25,Z+16
  71               	/* epilogue start */
  72 0022 0895      		ret
  73               	.LFE15:
  75               	.global	xTimerGenericCommand
  77               	xTimerGenericCommand:
  78               	.LFB4:
  79               	.LM7:
  80               	.LVL4:
  81 0024 0F93      		push r16
  82               	.LVL5:
  83 0026 1F93      		push r17
  84 0028 DF93      		push r29
  85 002a CF93      		push r28
  86 002c 00D0      		rcall .
  87 002e 0F92      		push __tmp_reg__
  88 0030 0F92      		push __tmp_reg__
  89 0032 CDB7      		in r28,__SP_L__
  90 0034 DEB7      		in r29,__SP_H__
  91               	/* prologue: function */
  92               	/* frame size = 5 */
  93 0036 FC01      		movw r30,r24
  94               	.LM8:
  95 0038 8091 0000 		lds r24,xTimerQueue
  96 003c 9091 0000 		lds r25,(xTimerQueue)+1
  97               	.LVL6:
  98 0040 0097      		sbiw r24,0
  99 0042 01F4      		brne .L7
 100 0044 80E0      		ldi r24,lo8(0)
 101               	.LVL7:
 102 0046 00C0      		rjmp .L8
 103               	.LVL8:
 104               	.L7:
 105               	.LM9:
 106 0048 6983      		std Y+1,r22
 107               	.LM10:
 108 004a 5B83      		std Y+3,r21
 109 004c 4A83      		std Y+2,r20
 110               	.LM11:
 111 004e FD83      		std Y+5,r31
 112 0050 EC83      		std Y+4,r30
 113               	.LM12:
 114 0052 2115      		cp r18,__zero_reg__
 115 0054 3105      		cpc r19,__zero_reg__
 116 0056 01F4      		brne .L9
 117               	.LM13:
 118 0058 0E94 0000 		call xTaskGetSchedulerState
 119               	.LVL9:
 120 005c 2091 0000 		lds r18,xTimerQueue
 121 0060 3091 0000 		lds r19,(xTimerQueue)+1
 122 0064 BE01      		movw r22,r28
 123 0066 6F5F      		subi r22,lo8(-(1))
 124 0068 7F4F      		sbci r23,hi8(-(1))
 125 006a 8130      		cpi r24,lo8(1)
 126 006c 01F4      		brne .L10
 127               	.LM14:
 128 006e C901      		movw r24,r18
 129 0070 A801      		movw r20,r16
 130               	.LVL10:
 131 0072 00C0      		rjmp .L12
 132               	.LVL11:
 133               	.L10:
 134               	.LM15:
 135 0074 C901      		movw r24,r18
 136 0076 40E0      		ldi r20,lo8(0)
 137 0078 50E0      		ldi r21,hi8(0)
 138               	.LVL12:
 139               	.L12:
 140 007a 20E0      		ldi r18,lo8(0)
 141 007c 0E94 0000 		call xQueueGenericSend
 142 0080 00C0      		rjmp .L8
 143               	.LVL13:
 144               	.L9:
 145               	.LM16:
 146 0082 BE01      		movw r22,r28
 147               	.LVL14:
 148 0084 6F5F      		subi r22,lo8(-(1))
 149 0086 7F4F      		sbci r23,hi8(-(1))
 150 0088 A901      		movw r20,r18
 151               	.LVL15:
 152 008a 20E0      		ldi r18,lo8(0)
 153               	.LVL16:
 154 008c 0E94 0000 		call xQueueGenericSendFromISR
 155               	.LVL17:
 156               	.L8:
 157               	.LVL18:
 158               	/* epilogue start */
 159               	.LM17:
 160 0090 0F90      		pop __tmp_reg__
 161 0092 0F90      		pop __tmp_reg__
 162 0094 0F90      		pop __tmp_reg__
 163 0096 0F90      		pop __tmp_reg__
 164 0098 0F90      		pop __tmp_reg__
 165 009a CF91      		pop r28
 166 009c DF91      		pop r29
 167 009e 1F91      		pop r17
 168 00a0 0F91      		pop r16
 169               	.LVL19:
 170 00a2 0895      		ret
 171               	.LFE4:
 174               	prvCheckForValidListAndQueue:
 175               	.LFB13:
 176               	.LM18:
 177 00a4 EF92      		push r14
 178 00a6 FF92      		push r15
 179 00a8 0F93      		push r16
 180 00aa 1F93      		push r17
 181               	/* prologue: function */
 182               	/* frame size = 0 */
 183               	.LM19:
 184               	/* #APP */
 185               	 ;  604 "src/FreeRTOS/timers.c" 1
 186 00ac 0FB6      		in		__tmp_reg__, __SREG__
 187               	 ;  0 "" 2
 188               	 ;  604 "src/FreeRTOS/timers.c" 1
 189 00ae F894      		cli
 190               	 ;  0 "" 2
 191               	 ;  604 "src/FreeRTOS/timers.c" 1
 192 00b0 0F92      		push	__tmp_reg__
 193               	 ;  0 "" 2
 194               	.LM20:
 195               	/* #NOAPP */
 196 00b2 8091 0000 		lds r24,xTimerQueue
 197 00b6 9091 0000 		lds r25,(xTimerQueue)+1
 198 00ba 892B      		or r24,r25
 199 00bc 01F4      		brne .L14
 200               	.LM21:
 201 00be 80E0      		ldi r24,lo8(xActiveTimerList1)
 202 00c0 E82E      		mov r14,r24
 203 00c2 80E0      		ldi r24,hi8(xActiveTimerList1)
 204 00c4 F82E      		mov r15,r24
 205 00c6 C701      		movw r24,r14
 206 00c8 0E94 0000 		call vListInitialise
 207               	.LM22:
 208 00cc 00E0      		ldi r16,lo8(xActiveTimerList2)
 209 00ce 10E0      		ldi r17,hi8(xActiveTimerList2)
 210 00d0 C801      		movw r24,r16
 211 00d2 0E94 0000 		call vListInitialise
 212               	.LM23:
 213 00d6 F092 0000 		sts (pxCurrentTimerList)+1,r15
 214 00da E092 0000 		sts pxCurrentTimerList,r14
 215               	.LM24:
 216 00de 1093 0000 		sts (pxOverflowTimerList)+1,r17
 217 00e2 0093 0000 		sts pxOverflowTimerList,r16
 218               	.LM25:
 219 00e6 85E0      		ldi r24,lo8(5)
 220 00e8 65E0      		ldi r22,lo8(5)
 221 00ea 0E94 0000 		call xQueueCreate
 222 00ee 9093 0000 		sts (xTimerQueue)+1,r25
 223 00f2 8093 0000 		sts xTimerQueue,r24
 224               	.L14:
 225               	.LM26:
 226               	/* #APP */
 227               	 ;  615 "src/FreeRTOS/timers.c" 1
 228 00f6 0F90      		pop		__tmp_reg__
 229               	 ;  0 "" 2
 230               	 ;  615 "src/FreeRTOS/timers.c" 1
 231 00f8 0FBE      		out		__SREG__, __tmp_reg__
 232               	 ;  0 "" 2
 233               	/* epilogue start */
 234               	.LM27:
 235               	/* #NOAPP */
 236 00fa 1F91      		pop r17
 237 00fc 0F91      		pop r16
 238 00fe FF90      		pop r15
 239 0100 EF90      		pop r14
 240 0102 0895      		ret
 241               	.LFE13:
 243               	.global	xTimerCreate
 245               	xTimerCreate:
 246               	.LFB3:
 247               	.LM28:
 248               	.LVL20:
 249 0104 7F92      		push r7
 250 0106 8F92      		push r8
 251 0108 9F92      		push r9
 252 010a AF92      		push r10
 253 010c BF92      		push r11
 254 010e CF92      		push r12
 255 0110 DF92      		push r13
 256 0112 EF92      		push r14
 257 0114 FF92      		push r15
 258 0116 0F93      		push r16
 259               	.LVL21:
 260 0118 1F93      		push r17
 261 011a CF93      		push r28
 262 011c DF93      		push r29
 263               	/* prologue: function */
 264               	/* frame size = 0 */
 265 011e 6C01      		movw r12,r24
 266 0120 7B01      		movw r14,r22
 267 0122 742E      		mov r7,r20
 268 0124 5901      		movw r10,r18
 269 0126 4801      		movw r8,r16
 270               	.LVL22:
 271               	.LM29:
 272 0128 6115      		cp r22,__zero_reg__
 273 012a 7105      		cpc r23,__zero_reg__
 274 012c 01F4      		brne .L17
 275               	.LVL23:
 276 012e 00E0      		ldi r16,lo8(0)
 277 0130 10E0      		ldi r17,hi8(0)
 278               	.LVL24:
 279 0132 00C0      		rjmp .L18
 280               	.LVL25:
 281               	.L17:
 282               	.LM30:
 283 0134 83E1      		ldi r24,lo8(19)
 284 0136 90E0      		ldi r25,hi8(19)
 285 0138 0E94 0000 		call pvPortMalloc
 286               	.LVL26:
 287 013c EC01      		movw r28,r24
 288 013e 8C01      		movw r16,r24
 289               	.LVL27:
 290               	.LM31:
 291 0140 0097      		sbiw r24,0
 292 0142 01F0      		breq .L18
 293               	.LM32:
 294 0144 0E94 0000 		call prvCheckForValidListAndQueue
 295               	.LVL28:
 296               	.LM33:
 297 0148 D982      		std Y+1,r13
 298 014a C882      		st Y,r12
 299               	.LM34:
 300 014c FD86      		std Y+13,r15
 301 014e EC86      		std Y+12,r14
 302               	.LM35:
 303 0150 7E86      		std Y+14,r7
 304               	.LM36:
 305 0152 B88A      		std Y+16,r11
 306 0154 AF86      		std Y+15,r10
 307               	.LM37:
 308 0156 9A8A      		std Y+18,r9
 309 0158 898A      		std Y+17,r8
 310               	.LM38:
 311 015a CE01      		movw r24,r28
 312 015c 0296      		adiw r24,2
 313 015e 0E94 0000 		call vListInitialiseItem
 314               	.LVL29:
 315               	.L18:
 316               	.LM39:
 317 0162 C801      		movw r24,r16
 318               	.LVL30:
 319               	/* epilogue start */
 320 0164 DF91      		pop r29
 321 0166 CF91      		pop r28
 322               	.LVL31:
 323 0168 1F91      		pop r17
 324 016a 0F91      		pop r16
 325 016c FF90      		pop r15
 326 016e EF90      		pop r14
 327               	.LVL32:
 328 0170 DF90      		pop r13
 329 0172 CF90      		pop r12
 330               	.LVL33:
 331 0174 BF90      		pop r11
 332 0176 AF90      		pop r10
 333               	.LVL34:
 334 0178 9F90      		pop r9
 335 017a 8F90      		pop r8
 336               	.LVL35:
 337 017c 7F90      		pop r7
 338               	.LVL36:
 339 017e 0895      		ret
 340               	.LFE3:
 342               		.data
 343               	.LC0:
 344 0000 546D 7220 		.string	"Tmr Svc"
 344      5376 6300 
 345               		.text
 346               	.global	xTimerCreateTimerTask
 348               	xTimerCreateTimerTask:
 349               	.LFB2:
 350               	.LM40:
 351 0180 AF92      		push r10
 352 0182 BF92      		push r11
 353 0184 CF92      		push r12
 354 0186 DF92      		push r13
 355 0188 EF92      		push r14
 356 018a FF92      		push r15
 357 018c 0F93      		push r16
 358               	/* prologue: function */
 359               	/* frame size = 0 */
 360               	.LM41:
 361 018e 0E94 0000 		call prvCheckForValidListAndQueue
 362               	.LM42:
 363 0192 8091 0000 		lds r24,xTimerQueue
 364 0196 9091 0000 		lds r25,(xTimerQueue)+1
 365 019a 892B      		or r24,r25
 366 019c 01F4      		brne .L21
 367 019e 80E0      		ldi r24,lo8(0)
 368               	.LVL37:
 369 01a0 00C0      		rjmp .L22
 370               	.LVL38:
 371               	.L21:
 372               	.LM43:
 373 01a2 80E0      		ldi r24,lo8(gs(prvTimerTask))
 374 01a4 90E0      		ldi r25,hi8(gs(prvTimerTask))
 375 01a6 60E0      		ldi r22,lo8(.LC0)
 376 01a8 70E0      		ldi r23,hi8(.LC0)
 377 01aa 46E9      		ldi r20,lo8(150)
 378 01ac 50E0      		ldi r21,hi8(150)
 379 01ae 20E0      		ldi r18,lo8(0)
 380 01b0 30E0      		ldi r19,hi8(0)
 381 01b2 02E0      		ldi r16,lo8(2)
 382 01b4 EE24      		clr r14
 383 01b6 FF24      		clr r15
 384 01b8 CC24      		clr r12
 385 01ba DD24      		clr r13
 386 01bc AA24      		clr r10
 387 01be BB24      		clr r11
 388 01c0 0E94 0000 		call xTaskGenericCreate
 389               	.LVL39:
 390               	.L22:
 391               	.LVL40:
 392               	/* epilogue start */
 393               	.LM44:
 394 01c4 0F91      		pop r16
 395 01c6 FF90      		pop r15
 396 01c8 EF90      		pop r14
 397 01ca DF90      		pop r13
 398 01cc CF90      		pop r12
 399 01ce BF90      		pop r11
 400 01d0 AF90      		pop r10
 401 01d2 0895      		ret
 402               	.LFE2:
 405               	prvSampleTimeNow:
 406               	.LFB9:
 407               	.LM45:
 408               	.LVL41:
 409 01d4 AF92      		push r10
 410 01d6 BF92      		push r11
 411 01d8 CF92      		push r12
 412 01da DF92      		push r13
 413 01dc EF92      		push r14
 414 01de FF92      		push r15
 415 01e0 0F93      		push r16
 416 01e2 1F93      		push r17
 417 01e4 CF93      		push r28
 418 01e6 DF93      		push r29
 419               	/* prologue: function */
 420               	/* frame size = 0 */
 421 01e8 5C01      		movw r10,r24
 422               	.LM46:
 423 01ea 0E94 0000 		call xTaskGetTickCount
 424               	.LVL42:
 425 01ee 7C01      		movw r14,r24
 426               	.LVL43:
 427               	.LM47:
 428 01f0 8091 0000 		lds r24,xLastTime.1595
 429 01f4 9091 0000 		lds r25,(xLastTime.1595)+1
 430 01f8 E816      		cp r14,r24
 431 01fa F906      		cpc r15,r25
 432 01fc 00F0      		brlo .L34
 433 01fe 00C0      		rjmp .L36
 434               	.LVL44:
 435               	.L28:
 436               	.LBB14:
 437               	.LBB15:
 438               	.LM48:
 439 0200 1596      		adiw r26,5
 440 0202 ED91      		ld r30,X+
 441 0204 FC91      		ld r31,X
 442 0206 1697      		sbiw r26,5+1
 443 0208 0081      		ld r16,Z
 444 020a 1181      		ldd r17,Z+1
 445               	.LM49:
 446 020c 1596      		adiw r26,5
 447 020e ED91      		ld r30,X+
 448 0210 FC91      		ld r31,X
 449 0212 1697      		sbiw r26,5+1
 450 0214 C681      		ldd r28,Z+6
 451 0216 D781      		ldd r29,Z+7
 452               	.LM50:
 453 0218 92E0      		ldi r25,lo8(2)
 454 021a C92E      		mov r12,r25
 455 021c D12C      		mov r13,__zero_reg__
 456 021e CC0E      		add r12,r28
 457 0220 DD1E      		adc r13,r29
 458 0222 C601      		movw r24,r12
 459 0224 0E94 0000 		call vListRemove
 460               	.LM51:
 461 0228 E989      		ldd r30,Y+17
 462 022a FA89      		ldd r31,Y+18
 463 022c CE01      		movw r24,r28
 464 022e 1995      		eicall
 465               	.LM52:
 466 0230 8E85      		ldd r24,Y+14
 467 0232 8130      		cpi r24,lo8(1)
 468 0234 01F4      		brne .L34
 469               	.LM53:
 470 0236 8C85      		ldd r24,Y+12
 471 0238 9D85      		ldd r25,Y+13
 472               	.LVL45:
 473 023a 800F      		add r24,r16
 474 023c 911F      		adc r25,r17
 475               	.LM54:
 476 023e 0817      		cp r16,r24
 477 0240 1907      		cpc r17,r25
 478 0242 00F4      		brsh .L27
 479               	.LM55:
 480 0244 9B83      		std Y+3,r25
 481 0246 8A83      		std Y+2,r24
 482               	.LM56:
 483 0248 D987      		std Y+9,r29
 484 024a C887      		std Y+8,r28
 485               	.LM57:
 486 024c 8091 0000 		lds r24,pxCurrentTimerList
 487 0250 9091 0000 		lds r25,(pxCurrentTimerList)+1
 488               	.LVL46:
 489 0254 B601      		movw r22,r12
 490 0256 0E94 0000 		call vListInsert
 491 025a 00C0      		rjmp .L34
 492               	.LVL47:
 493               	.L27:
 494               	.LM58:
 495 025c CE01      		movw r24,r28
 496               	.LVL48:
 497 025e 60E0      		ldi r22,lo8(0)
 498 0260 A801      		movw r20,r16
 499 0262 20E0      		ldi r18,lo8(0)
 500 0264 30E0      		ldi r19,hi8(0)
 501 0266 00E0      		ldi r16,lo8(0)
 502 0268 10E0      		ldi r17,hi8(0)
 503               	.LVL49:
 504 026a 0E94 0000 		call xTimerGenericCommand
 505               	.LVL50:
 506               	.L34:
 507               	.LM59:
 508 026e A091 0000 		lds r26,pxCurrentTimerList
 509 0272 B091 0000 		lds r27,(pxCurrentTimerList)+1
 510 0276 8C91      		ld r24,X
 511 0278 8823      		tst r24
 512 027a 01F4      		brne .L28
 513               	.LM60:
 514 027c 8091 0000 		lds r24,pxOverflowTimerList
 515 0280 9091 0000 		lds r25,(pxOverflowTimerList)+1
 516 0284 9093 0000 		sts (pxCurrentTimerList)+1,r25
 517 0288 8093 0000 		sts pxCurrentTimerList,r24
 518               	.LM61:
 519 028c B093 0000 		sts (pxOverflowTimerList)+1,r27
 520 0290 A093 0000 		sts pxOverflowTimerList,r26
 521               	.LBE15:
 522               	.LBE14:
 523               	.LM62:
 524 0294 81E0      		ldi r24,lo8(1)
 525 0296 F501      		movw r30,r10
 526 0298 8083      		st Z,r24
 527 029a 00C0      		rjmp .L29
 528               	.LVL51:
 529               	.L36:
 530               	.LM63:
 531 029c F501      		movw r30,r10
 532 029e 1082      		st Z,__zero_reg__
 533               	.LVL52:
 534               	.L29:
 535               	.LM64:
 536 02a0 F092 0000 		sts (xLastTime.1595)+1,r15
 537 02a4 E092 0000 		sts xLastTime.1595,r14
 538               	.LM65:
 539 02a8 C701      		movw r24,r14
 540               	.LVL53:
 541               	/* epilogue start */
 542 02aa DF91      		pop r29
 543 02ac CF91      		pop r28
 544 02ae 1F91      		pop r17
 545 02b0 0F91      		pop r16
 546               	.LVL54:
 547 02b2 FF90      		pop r15
 548 02b4 EF90      		pop r14
 549 02b6 DF90      		pop r13
 550 02b8 CF90      		pop r12
 551 02ba BF90      		pop r11
 552 02bc AF90      		pop r10
 553               	.LVL55:
 554 02be 0895      		ret
 555               	.LFE9:
 558               	prvInsertTimerInActiveList:
 559               	.LFB10:
 560               	.LM66:
 561               	.LVL56:
 562               	/* prologue: function */
 563               	/* frame size = 0 */
 564 02c0 FC01      		movw r30,r24
 565               	.LM67:
 566 02c2 7383      		std Z+3,r23
 567 02c4 6283      		std Z+2,r22
 568               	.LM68:
 569 02c6 9187      		std Z+9,r25
 570 02c8 8087      		std Z+8,r24
 571               	.LM69:
 572 02ca 4617      		cp r20,r22
 573 02cc 5707      		cpc r21,r23
 574 02ce 00F0      		brlo .L38
 575               	.LVL57:
 576               	.LM70:
 577 02d0 421B      		sub r20,r18
 578 02d2 530B      		sbc r21,r19
 579               	.LVL58:
 580 02d4 8485      		ldd r24,Z+12
 581 02d6 9585      		ldd r25,Z+13
 582 02d8 4817      		cp r20,r24
 583 02da 5907      		cpc r21,r25
 584 02dc 00F4      		brsh .L39
 585               	.LM71:
 586 02de 3296      		adiw r30,2
 587 02e0 8091 0000 		lds r24,pxOverflowTimerList
 588 02e4 9091 0000 		lds r25,(pxOverflowTimerList)+1
 589 02e8 00C0      		rjmp .L43
 590               	.LVL59:
 591               	.L38:
 592               	.LM72:
 593 02ea 4217      		cp r20,r18
 594 02ec 5307      		cpc r21,r19
 595 02ee 00F4      		brsh .L41
 596 02f0 6217      		cp r22,r18
 597 02f2 7307      		cpc r23,r19
 598 02f4 00F4      		brsh .L39
 599               	.L41:
 600               	.LM73:
 601 02f6 3296      		adiw r30,2
 602 02f8 8091 0000 		lds r24,pxCurrentTimerList
 603 02fc 9091 0000 		lds r25,(pxCurrentTimerList)+1
 604               	.L43:
 605 0300 BF01      		movw r22,r30
 606               	.LVL60:
 607 0302 0E94 0000 		call vListInsert
 608               	.LVL61:
 609 0306 80E0      		ldi r24,lo8(0)
 610               	.LVL62:
 611 0308 0895      		ret
 612               	.LVL63:
 613               	.L39:
 614 030a 81E0      		ldi r24,lo8(1)
 615               	.LVL64:
 616               	.LVL65:
 617               	.LM74:
 618 030c 0895      		ret
 619               	.LFE10:
 622               	prvTimerTask:
 623               	.LFB6:
 624               	.LM75:
 625               	.LVL66:
 626 030e 8F92      		push r8
 627 0310 9F92      		push r9
 628 0312 AF92      		push r10
 629 0314 BF92      		push r11
 630 0316 CF92      		push r12
 631 0318 DF92      		push r13
 632 031a EF92      		push r14
 633 031c FF92      		push r15
 634 031e 0F93      		push r16
 635 0320 1F93      		push r17
 636 0322 DF93      		push r29
 637 0324 CF93      		push r28
 638 0326 00D0      		rcall .
 639 0328 00D0      		rcall .
 640 032a CDB7      		in r28,__SP_L__
 641 032c DEB7      		in r29,__SP_H__
 642               	/* prologue: function */
 643               	/* frame size = 6 */
 644               	.LBB16:
 645               	.LM76:
 646 032e 5E01      		movw r10,r28
 647 0330 0894      		sec
 648 0332 A11C      		adc r10,__zero_reg__
 649 0334 B11C      		adc r11,__zero_reg__
 650               	.LBE16:
 651               	.LBB23:
 652               	.LM77:
 653 0336 22E0      		ldi r18,lo8(2)
 654 0338 822E      		mov r8,r18
 655 033a 912C      		mov r9,__zero_reg__
 656 033c 8C0E      		add r8,r28
 657 033e 9D1E      		adc r9,r29
 658               	.LVL67:
 659               	.L58:
 660               	.LBE23:
 661               	.LBB27:
 662               	.LBB28:
 663               	.LM78:
 664 0340 E091 0000 		lds r30,pxCurrentTimerList
 665 0344 F091 0000 		lds r31,(pxCurrentTimerList)+1
 666 0348 8081      		ld r24,Z
 667               	.LVL68:
 668 034a FF24      		clr r15
 669 034c 8823      		tst r24
 670 034e 01F4      		brne .L46
 671 0350 FF24      		clr r15
 672 0352 F394      		inc r15
 673               	.LM79:
 674 0354 00E0      		ldi r16,lo8(0)
 675 0356 10E0      		ldi r17,hi8(0)
 676               	.LVL69:
 677 0358 00C0      		rjmp .L47
 678               	.LVL70:
 679               	.L46:
 680               	.LM80:
 681 035a 0580      		ldd __tmp_reg__,Z+5
 682 035c F681      		ldd r31,Z+6
 683 035e E02D      		mov r30,__tmp_reg__
 684 0360 0081      		ld r16,Z
 685 0362 1181      		ldd r17,Z+1
 686               	.LVL71:
 687               	.L47:
 688               	.LBE28:
 689               	.LBE27:
 690               	.LBB29:
 691               	.LBB17:
 692               	.LM81:
 693 0364 0E94 0000 		call vTaskSuspendAll
 694               	.LBE17:
 695               	.LM82:
 696 0368 C501      		movw r24,r10
 697 036a 0E94 0000 		call prvSampleTimeNow
 698 036e 6C01      		movw r12,r24
 699               	.LBB21:
 700               	.LM83:
 701 0370 8981      		ldd r24,Y+1
 702 0372 8823      		tst r24
 703 0374 01F0      		breq .+2
 704 0376 00C0      		rjmp .L48
 705               	.LVL72:
 706               	.LM84:
 707 0378 FF20      		tst r15
 708 037a 01F4      		brne .L49
 709 037c C016      		cp r12,r16
 710 037e D106      		cpc r13,r17
 711 0380 00F0      		brlo .L49
 712               	.LM85:
 713 0382 0E94 0000 		call xTaskResumeAll
 714               	.LVL73:
 715               	.LBB18:
 716               	.LBB19:
 717               	.LM86:
 718 0386 E091 0000 		lds r30,pxCurrentTimerList
 719 038a F091 0000 		lds r31,(pxCurrentTimerList)+1
 720 038e 0580      		ldd __tmp_reg__,Z+5
 721 0390 F681      		ldd r31,Z+6
 722 0392 E02D      		mov r30,__tmp_reg__
 723 0394 E680      		ldd r14,Z+6
 724 0396 F780      		ldd r15,Z+7
 725               	.LVL74:
 726               	.LM87:
 727 0398 C701      		movw r24,r14
 728 039a 0296      		adiw r24,2
 729 039c 0E94 0000 		call vListRemove
 730               	.LM88:
 731 03a0 D701      		movw r26,r14
 732 03a2 1E96      		adiw r26,14
 733 03a4 8C91      		ld r24,X
 734 03a6 1E97      		sbiw r26,14
 735 03a8 8130      		cpi r24,lo8(1)
 736 03aa 01F4      		brne .L50
 737               	.LBE19:
 738               	.LM89:
 739 03ac 1C96      		adiw r26,12
 740 03ae 6D91      		ld r22,X+
 741 03b0 7C91      		ld r23,X
 742 03b2 1D97      		sbiw r26,12+1
 743 03b4 600F      		add r22,r16
 744 03b6 711F      		adc r23,r17
 745 03b8 C701      		movw r24,r14
 746 03ba A601      		movw r20,r12
 747 03bc 9801      		movw r18,r16
 748 03be 0E94 0000 		call prvInsertTimerInActiveList
 749               	.LBB20:
 750 03c2 8130      		cpi r24,lo8(1)
 751 03c4 01F4      		brne .L50
 752               	.LM90:
 753 03c6 C701      		movw r24,r14
 754 03c8 60E0      		ldi r22,lo8(0)
 755 03ca A801      		movw r20,r16
 756 03cc 20E0      		ldi r18,lo8(0)
 757 03ce 30E0      		ldi r19,hi8(0)
 758 03d0 00E0      		ldi r16,lo8(0)
 759 03d2 10E0      		ldi r17,hi8(0)
 760               	.LVL75:
 761 03d4 0E94 0000 		call xTimerGenericCommand
 762               	.LVL76:
 763               	.L50:
 764               	.LM91:
 765 03d8 D701      		movw r26,r14
 766 03da 5196      		adiw r26,17
 767 03dc ED91      		ld r30,X+
 768 03de FC91      		ld r31,X
 769 03e0 5297      		sbiw r26,17+1
 770 03e2 C701      		movw r24,r14
 771 03e4 1995      		eicall
 772 03e6 00C0      		rjmp .L51
 773               	.LVL77:
 774               	.L49:
 775               	.LBE20:
 776               	.LBE18:
 777               	.LM92:
 778 03e8 0C19      		sub r16,r12
 779 03ea 1D09      		sbc r17,r13
 780 03ec 8091 0000 		lds r24,xTimerQueue
 781 03f0 9091 0000 		lds r25,(xTimerQueue)+1
 782               	.LVL78:
 783 03f4 B801      		movw r22,r16
 784 03f6 0E94 0000 		call vQueueWaitForMessageRestricted
 785               	.LBE21:
 786               	.LM93:
 787 03fa 0E94 0000 		call xTaskResumeAll
 788               	.LBB22:
 789 03fe 8823      		tst r24
 790 0400 01F4      		brne .L51
 791               	.LM94:
 792 0402 0E94 0000 		call vPortYield
 793 0406 00C0      		rjmp .L51
 794               	.LVL79:
 795               	.L48:
 796               	.LM95:
 797 0408 0E94 0000 		call xTaskResumeAll
 798               	.LVL80:
 799               	.L51:
 800               	.LBE22:
 801               	.LBE29:
 802               	.LBB30:
 803               	.LM96:
 804 040c C501      		movw r24,r10
 805 040e 0E94 0000 		call prvSampleTimeNow
 806 0412 7C01      		movw r14,r24
 807               	.LVL81:
 808 0414 00C0      		rjmp .L62
 809               	.LVL82:
 810               	.L63:
 811               	.LBB24:
 812               	.LM97:
 813 0416 0D81      		ldd r16,Y+5
 814 0418 1E81      		ldd r17,Y+6
 815               	.LVL83:
 816               	.LM98:
 817 041a 0115      		cp r16,__zero_reg__
 818 041c 1105      		cpc r17,__zero_reg__
 819 041e 01F0      		breq .L53
 820               	.LM99:
 821 0420 F801      		movw r30,r16
 822 0422 8285      		ldd r24,Z+10
 823 0424 9385      		ldd r25,Z+11
 824 0426 892B      		or r24,r25
 825 0428 01F0      		breq .L53
 826               	.LM100:
 827 042a C801      		movw r24,r16
 828 042c 0296      		adiw r24,2
 829 042e 0E94 0000 		call vListRemove
 830               	.L53:
 831               	.LM101:
 832 0432 8A81      		ldd r24,Y+2
 833 0434 8230      		cpi r24,lo8(2)
 834 0436 01F0      		breq .L55
 835 0438 8330      		cpi r24,lo8(3)
 836 043a 01F0      		breq .L56
 837 043c 8823      		tst r24
 838 043e 01F4      		brne .L62
 839               	.LM102:
 840 0440 2B81      		ldd r18,Y+3
 841 0442 3C81      		ldd r19,Y+4
 842               	.LBE24:
 843 0444 D801      		movw r26,r16
 844 0446 1C96      		adiw r26,12
 845 0448 6D91      		ld r22,X+
 846 044a 7C91      		ld r23,X
 847 044c 1D97      		sbiw r26,12+1
 848 044e 620F      		add r22,r18
 849 0450 731F      		adc r23,r19
 850 0452 C801      		movw r24,r16
 851 0454 A701      		movw r20,r14
 852 0456 0E94 0000 		call prvInsertTimerInActiveList
 853               	.LBB25:
 854 045a 8130      		cpi r24,lo8(1)
 855 045c 01F4      		brne .L62
 856               	.LM103:
 857 045e D801      		movw r26,r16
 858 0460 5196      		adiw r26,17
 859 0462 ED91      		ld r30,X+
 860 0464 FC91      		ld r31,X
 861 0466 5297      		sbiw r26,17+1
 862 0468 C801      		movw r24,r16
 863 046a 1995      		eicall
 864               	.LM104:
 865 046c F801      		movw r30,r16
 866 046e 8685      		ldd r24,Z+14
 867 0470 8130      		cpi r24,lo8(1)
 868 0472 01F4      		brne .L62
 869               	.LM105:
 870 0474 4485      		ldd r20,Z+12
 871 0476 5585      		ldd r21,Z+13
 872 0478 8B81      		ldd r24,Y+3
 873 047a 9C81      		ldd r25,Y+4
 874 047c 480F      		add r20,r24
 875 047e 591F      		adc r21,r25
 876 0480 C801      		movw r24,r16
 877 0482 60E0      		ldi r22,lo8(0)
 878 0484 20E0      		ldi r18,lo8(0)
 879 0486 30E0      		ldi r19,hi8(0)
 880 0488 00E0      		ldi r16,lo8(0)
 881 048a 10E0      		ldi r17,hi8(0)
 882               	.LVL84:
 883 048c 0E94 0000 		call xTimerGenericCommand
 884 0490 00C0      		rjmp .L62
 885               	.LVL85:
 886               	.L55:
 887               	.LM106:
 888 0492 6B81      		ldd r22,Y+3
 889 0494 7C81      		ldd r23,Y+4
 890 0496 D801      		movw r26,r16
 891 0498 1D96      		adiw r26,12+1
 892 049a 7C93      		st X,r23
 893 049c 6E93      		st -X,r22
 894 049e 1C97      		sbiw r26,12
 895               	.LM107:
 896 04a0 6E0D      		add r22,r14
 897 04a2 7F1D      		adc r23,r15
 898 04a4 C801      		movw r24,r16
 899 04a6 A701      		movw r20,r14
 900 04a8 9701      		movw r18,r14
 901 04aa 0E94 0000 		call prvInsertTimerInActiveList
 902 04ae 00C0      		rjmp .L62
 903               	.L56:
 904               	.LM108:
 905 04b0 C801      		movw r24,r16
 906 04b2 0E94 0000 		call vPortFree
 907               	.LVL86:
 908               	.L62:
 909               	.LBE25:
 910               	.LM109:
 911 04b6 8091 0000 		lds r24,xTimerQueue
 912 04ba 9091 0000 		lds r25,(xTimerQueue)+1
 913 04be B401      		movw r22,r8
 914 04c0 40E0      		ldi r20,lo8(0)
 915 04c2 50E0      		ldi r21,hi8(0)
 916 04c4 20E0      		ldi r18,lo8(0)
 917 04c6 0E94 0000 		call xQueueGenericReceive
 918               	.LBB26:
 919 04ca 8823      		tst r24
 920 04cc 01F4      		brne .+2
 921 04ce 00C0      		rjmp .L58
 922 04d0 00C0      		rjmp .L63
 923               	.LBE26:
 924               	.LBE30:
 925               	.LFE6:
 927               		.lcomm xTimerQueue,2
 928               		.lcomm xLastTime.1595,2
 929               		.lcomm xActiveTimerList1,9
 930               		.lcomm xActiveTimerList2,9
 931               		.lcomm pxCurrentTimerList,2
 932               		.lcomm pxOverflowTimerList,2
 1021               	.Letext0:
DEFINED SYMBOLS
                            *ABS*:00000000 timers.c
C:\Users\GUI\AppData\Local\Temp/ccgZzq0S.s:2      *ABS*:0000003f __SREG__
C:\Users\GUI\AppData\Local\Temp/ccgZzq0S.s:3      *ABS*:0000003e __SP_H__
C:\Users\GUI\AppData\Local\Temp/ccgZzq0S.s:4      *ABS*:0000003d __SP_L__
C:\Users\GUI\AppData\Local\Temp/ccgZzq0S.s:5      *ABS*:00000034 __CCP__
C:\Users\GUI\AppData\Local\Temp/ccgZzq0S.s:6      *ABS*:00000000 __tmp_reg__
C:\Users\GUI\AppData\Local\Temp/ccgZzq0S.s:7      *ABS*:00000001 __zero_reg__
C:\Users\GUI\AppData\Local\Temp/ccgZzq0S.s:18     .text:00000000 xTimerIsTimerActive
C:\Users\GUI\AppData\Local\Temp/ccgZzq0S.s:60     .text:0000001c pvTimerGetTimerID
C:\Users\GUI\AppData\Local\Temp/ccgZzq0S.s:77     .text:00000024 xTimerGenericCommand
                             .bss:00000000 xTimerQueue
C:\Users\GUI\AppData\Local\Temp/ccgZzq0S.s:174    .text:000000a4 prvCheckForValidListAndQueue
C:\Users\GUI\AppData\Local\Temp/ccgZzq0S.s:928    .bss:00000004 xActiveTimerList1
C:\Users\GUI\AppData\Local\Temp/ccgZzq0S.s:929    .bss:0000000d xActiveTimerList2
C:\Users\GUI\AppData\Local\Temp/ccgZzq0S.s:930    .bss:00000016 pxCurrentTimerList
C:\Users\GUI\AppData\Local\Temp/ccgZzq0S.s:931    .bss:00000018 pxOverflowTimerList
C:\Users\GUI\AppData\Local\Temp/ccgZzq0S.s:245    .text:00000104 xTimerCreate
C:\Users\GUI\AppData\Local\Temp/ccgZzq0S.s:348    .text:00000180 xTimerCreateTimerTask
C:\Users\GUI\AppData\Local\Temp/ccgZzq0S.s:622    .text:0000030e prvTimerTask
C:\Users\GUI\AppData\Local\Temp/ccgZzq0S.s:405    .text:000001d4 prvSampleTimeNow
C:\Users\GUI\AppData\Local\Temp/ccgZzq0S.s:927    .bss:00000002 xLastTime.1595
C:\Users\GUI\AppData\Local\Temp/ccgZzq0S.s:558    .text:000002c0 prvInsertTimerInActiveList

UNDEFINED SYMBOLS
xTaskGetSchedulerState
xQueueGenericSend
xQueueGenericSendFromISR
vListInitialise
xQueueCreate
pvPortMalloc
vListInitialiseItem
xTaskGenericCreate
xTaskGetTickCount
vListRemove
vListInsert
vTaskSuspendAll
xTaskResumeAll
vQueueWaitForMessageRestricted
vPortYield
vPortFree
xQueueGenericReceive
__do_copy_data
__do_clear_bss
